; Function Attrs: nofree norecurse nosync nounwind memory(read, inaccessiblemem: none) uwtable
define internal range(i32 -1, 2) i32 @H5D__btree_cmp3(ptr noundef readonly captures(address) %0, ptr noundef readonly captures(none) %1, ptr noundef readonly captures(address) %2) #13 {
  %4 = load i8, ptr @H5D_init_g, align 1, !tbaa !3, !range !7, !noundef !8
  %5 = trunc nuw i8 %4 to i1
  %6 = load i8, ptr @H5_libterm_g, align 1, !range !7
  %7 = trunc nuw i8 %6 to i1
  %8 = xor i1 %7, true
  %9 = select i1 %5, i1 true, i1 %8
  br i1 %9, label %10, label %H5VM_vector_cmp_u.exit33, !prof !9

10:                                               ; preds = %3
  %11 = load ptr, ptr %1, align 8, !tbaa !22
  %12 = getelementptr inbounds nuw i8, ptr %11, i64 8
  %13 = load i32, ptr %12, align 8, !tbaa !40
  %14 = icmp eq i32 %13, 2
  %15 = getelementptr inbounds nuw i8, ptr %1, i64 16
  %16 = load ptr, ptr %15, align 8, !tbaa !68
  br i1 %14, label %17, label %31

17:                                               ; preds = %10
  %18 = load i64, ptr %16, align 8, !tbaa !20
  %19 = load i64, ptr %2, align 8, !tbaa !20
  %20 = icmp ugt i64 %18, %19
  br i1 %20, label %H5VM_vector_cmp_u.exit33, label %21

21:                                               ; preds = %17
  %22 = icmp eq i64 %18, %19
  br i1 %22, label %23, label %28

23:                                               ; preds = %21
  %24 = getelementptr inbounds nuw i8, ptr %16, i64 8
  %25 = load i64, ptr %24, align 8, !tbaa !20
  %26 = getelementptr inbounds nuw i8, ptr %2, i64 8
  %27 = load i64, ptr %26, align 8, !tbaa !20
  %.not = icmp ult i64 %25, %27
  br i1 %.not, label %28, label %H5VM_vector_cmp_u.exit33

28:                                               ; preds = %23, %21
  %29 = load i64, ptr %0, align 8, !tbaa !20
  %30 = icmp ult i64 %18, %29
  %spec.select = sext i1 %30 to i32
  br label %H5VM_vector_cmp_u.exit33

31:                                               ; preds = %10
  %not..i = xor i1 %5, true
  %.not18.i = select i1 %not..i, i1 %7, i1 false
  %32 = icmp eq ptr %16, %2
  %or.cond.i = or i1 %.not18.i, %32
  br i1 %or.cond.i, label %H5VM_vector_cmp_u.exit33, label %33, !prof !66

33:                                               ; preds = %31
  %34 = icmp eq ptr %16, null
  br i1 %34, label %H5VM_vector_cmp_u.exit.thread35, label %35

35:                                               ; preds = %33
  %36 = icmp eq ptr %2, null
  %.not19.i = icmp eq i32 %13, 0
  %or.cond = or i1 %36, %.not19.i
  br i1 %or.cond, label %H5VM_vector_cmp_u.exit33, label %.lr.ph.i

.lr.ph.i:                                         ; preds = %35, %40
  %.in.i = phi i32 [ %41, %40 ], [ %13, %35 ]
  %.01121.i = phi ptr [ %44, %40 ], [ %2, %35 ]
  %.01220.i = phi ptr [ %43, %40 ], [ %16, %35 ]
  %37 = load i64, ptr %.01220.i, align 8, !tbaa !20
  %38 = load i64, ptr %.01121.i, align 8, !tbaa !20
  %39 = icmp ult i64 %37, %38
  br i1 %39, label %H5VM_vector_cmp_u.exit, label %40

40:                                               ; preds = %.lr.ph.i
  %41 = add i32 %.in.i, -1
  %42 = icmp ugt i64 %37, %38
  %43 = getelementptr inbounds nuw i8, ptr %.01220.i, i64 8
  %44 = getelementptr inbounds nuw i8, ptr %.01121.i, i64 8
  %.not.i = icmp eq i32 %41, 0
  %or.cond40 = select i1 %42, i1 true, i1 %.not.i
  br i1 %or.cond40, label %H5VM_vector_cmp_u.exit33, label %.lr.ph.i, !llvm.loop !67

H5VM_vector_cmp_u.exit:                           ; preds = %.lr.ph.i
  %45 = icmp eq ptr %16, %0
  %46 = icmp eq ptr %0, null
  %47 = or i1 %45, %46
  br i1 %47, label %H5VM_vector_cmp_u.exit33.thread, label %.lr.ph.i27, !prof !69

H5VM_vector_cmp_u.exit.thread35:                  ; preds = %33
  %48 = icmp eq ptr %0, null
  br i1 %48, label %H5VM_vector_cmp_u.exit33.thread, label %H5VM_vector_cmp_u.exit33, !prof !66

.lr.ph.i27:                                       ; preds = %H5VM_vector_cmp_u.exit, %52
  %.in.i28 = phi i32 [ %53, %52 ], [ %13, %H5VM_vector_cmp_u.exit ]
  %.01121.i29 = phi ptr [ %56, %52 ], [ %0, %H5VM_vector_cmp_u.exit ]
  %.01220.i30 = phi ptr [ %55, %52 ], [ %16, %H5VM_vector_cmp_u.exit ]
  %49 = load i64, ptr %.01220.i30, align 8, !tbaa !20
  %50 = load i64, ptr %.01121.i29, align 8, !tbaa !20
  %51 = icmp ult i64 %49, %50
  br i1 %51, label %H5VM_vector_cmp_u.exit33, label %52

52:                                               ; preds = %.lr.ph.i27
  %53 = add i32 %.in.i28, -1
  %54 = icmp ugt i64 %49, %50
  %55 = getelementptr inbounds nuw i8, ptr %.01220.i30, i64 8
  %56 = getelementptr inbounds nuw i8, ptr %.01121.i29, i64 8
  %.not.i31 = icmp eq i32 %53, 0
  %or.cond43 = select i1 %54, i1 true, i1 %.not.i31
  br i1 %or.cond43, label %H5VM_vector_cmp_u.exit33.thread, label %.lr.ph.i27, !llvm.loop !67

H5VM_vector_cmp_u.exit33.thread:                  ; preds = %52, %H5VM_vector_cmp_u.exit, %H5VM_vector_cmp_u.exit.thread35
  br label %H5VM_vector_cmp_u.exit33

H5VM_vector_cmp_u.exit33:                         ; preds = %40, %.lr.ph.i27, %H5VM_vector_cmp_u.exit.thread35, %35, %31, %H5VM_vector_cmp_u.exit33.thread, %28, %23, %17, %3
  %.0 = phi i32 [ 0, %3 ], [ 1, %17 ], [ 1, %23 ], [ %spec.select, %28 ], [ 0, %H5VM_vector_cmp_u.exit33.thread ], [ 1, %31 ], [ 1, %35 ], [ -1, %H5VM_vector_cmp_u.exit.thread35 ], [ -1, %.lr.ph.i27 ], [ 1, %40 ]
  ret i32 %.0
}